target datalayout = "e-m:e-p270:32:32-p271:32:32-p272:64:64-i64:64-i128:128-f80:128-n8:16:32:64-S128"
target triple = "x86_64-pc-linux-gnu"

%class.b3Vector3 = type { %union.anon }
%union.anon = type { [4 x float] }
%struct.b3RigidBodyData = type { %class.b3Vector3, %class.b3Quaternion, %class.b3Vector3, %class.b3Vector3, i32, float, float, float }
%class.b3Quaternion = type { %class.b3QuadWord }
%class.b3QuadWord = type { %union.anon.32 }
%union.anon.32 = type { [4 x float] }
%class.b3GpuNarrowPhase = type { ptr, ptr, i32, i32, i32, ptr, ptr, ptr }
%struct.b3GpuNarrowPhaseInternalData = type { ptr, %class.b3AlignedObjectArray, %class.b3AlignedObjectArray.0, %class.b3AlignedObjectArray.0, %class.b3AlignedObjectArray.2, ptr, ptr, ptr, ptr, ptr, ptr, ptr, ptr, ptr, %class.b3AlignedObjectArray.4, ptr, %class.b3AlignedObjectArray.6, ptr, ptr, ptr, [2 x ptr], i32, ptr, ptr, ptr, ptr, ptr, i32, i32, %class.b3AlignedObjectArray.8, ptr, ptr, ptr, %class.b3AlignedObjectArray.10, %class.b3AlignedObjectArray.12, %class.b3AlignedObjectArray.14, %class.b3AlignedObjectArray.16, %class.b3AlignedObjectArray.18, ptr, ptr, ptr, %struct.b3Config }
%class.b3AlignedObjectArray = type <{ [4 x i8], i32, i32, [4 x i8], ptr, i8, [7 x i8] }>
%class.b3AlignedObjectArray.0 = type <{ [4 x i8], i32, i32, [4 x i8], ptr, i8, [7 x i8] }>
%class.b3AlignedObjectArray.2 = type <{ [4 x i8], i32, i32, [4 x i8], ptr, i8, [7 x i8] }>
%class.b3AlignedObjectArray.4 = type <{ [4 x i8], i32, i32, [4 x i8], ptr, i8, [7 x i8] }>
%class.b3AlignedObjectArray.6 = type <{ [4 x i8], i32, i32, [4 x i8], ptr, i8, [7 x i8] }>
%class.b3AlignedObjectArray.8 = type <{ [4 x i8], i32, i32, [4 x i8], ptr, i8, [7 x i8] }>
%class.b3AlignedObjectArray.10 = type <{ [4 x i8], i32, i32, [4 x i8], ptr, i8, [7 x i8] }>
%class.b3AlignedObjectArray.12 = type <{ [4 x i8], i32, i32, [4 x i8], ptr, i8, [7 x i8] }>
%class.b3AlignedObjectArray.14 = type <{ [4 x i8], i32, i32, [4 x i8], ptr, i8, [7 x i8] }>
%class.b3AlignedObjectArray.16 = type <{ [4 x i8], i32, i32, [4 x i8], ptr, i8, [7 x i8] }>
%class.b3AlignedObjectArray.18 = type <{ [4 x i8], i32, i32, [4 x i8], ptr, i8, [7 x i8] }>
%struct.b3Config = type { i32, i32, i32, i32, i32, i32, i32, i32, i32, i32, i32, i32 }
%class.b3AlignedObjectArray.30 = type <{ [4 x i8], i32, i32, [4 x i8], ptr, i8, [7 x i8] }>

@.str.1 = private unnamed_addr constant [142 x i8] c"generated/home/dtcxzyw/WorkSpace/Projects/compilers/llvm-opt-benchmark/bench/bullet3/bullet3/src/Bullet3OpenCL/RigidBody/b3GpuNarrowPhase.cpp\00", align 1
@.str.6 = private unnamed_addr constant [19 x i8] c"b3Warning[%s,%d]:\0A\00", align 1
@.str.7 = private unnamed_addr constant [36 x i8] c"setObjectVelocityCpu out of range.\0A\00", align 1

; Function Attrs: inlinehint mustprogress nounwind uwtable
define linkonce_odr dso_local void @_ZN9b3Vector38setValueERKfS1_S1_(ptr noundef nonnull align 16 dereferenceable(16) %0, ptr noundef nonnull align 4 dereferenceable(4) %1, ptr noundef nonnull align 4 dereferenceable(4) %2, ptr noundef nonnull align 4 dereferenceable(4) %3) #9 comdat align 2 {
  %5 = alloca ptr, align 8
  %6 = alloca ptr, align 8
  %7 = alloca ptr, align 8
  %8 = alloca ptr, align 8
  store ptr %0, ptr %5, align 8, !tbaa !276
  store ptr %1, ptr %6, align 8, !tbaa !397
  store ptr %2, ptr %7, align 8, !tbaa !397
  store ptr %3, ptr %8, align 8, !tbaa !397
  %9 = load ptr, ptr %5, align 8
  %10 = load ptr, ptr %6, align 8, !tbaa !397
  %11 = load float, ptr %10, align 4, !tbaa !309
  %12 = getelementptr inbounds nuw %class.b3Vector3, ptr %9, i32 0, i32 0
  %13 = getelementptr inbounds [4 x float], ptr %12, i64 0, i64 0
  store float %11, ptr %13, align 16, !tbaa !308
  %14 = load ptr, ptr %7, align 8, !tbaa !397
  %15 = load float, ptr %14, align 4, !tbaa !309
  %16 = getelementptr inbounds nuw %class.b3Vector3, ptr %9, i32 0, i32 0
  %17 = getelementptr inbounds [4 x float], ptr %16, i64 0, i64 1
  store float %15, ptr %17, align 4, !tbaa !308
  %18 = load ptr, ptr %8, align 8, !tbaa !397
  %19 = load float, ptr %18, align 4, !tbaa !309
  %20 = getelementptr inbounds nuw %class.b3Vector3, ptr %9, i32 0, i32 0
  %21 = getelementptr inbounds [4 x float], ptr %20, i64 0, i64 2
  store float %19, ptr %21, align 8, !tbaa !308
  %22 = getelementptr inbounds nuw %class.b3Vector3, ptr %9, i32 0, i32 0
  %23 = getelementptr inbounds [4 x float], ptr %22, i64 0, i64 3
  store float 0.000000e+00, ptr %23, align 4, !tbaa !308
  ret void
}

; Function Attrs: inlinehint mustprogress nounwind uwtable
define linkonce_odr dso_local noundef nonnull align 16 dereferenceable(80) ptr @_ZN20b3AlignedObjectArrayI15b3RigidBodyDataE2atEi(ptr noundef nonnull align 8 dereferenceable(25) %0, i32 noundef %1) #9 comdat align 2 {
  %3 = alloca ptr, align 8
  %4 = alloca i32, align 4
  store ptr %0, ptr %3, align 8, !tbaa !154
  store i32 %1, ptr %4, align 4, !tbaa !85
  %5 = load ptr, ptr %3, align 8
  %6 = getelementptr inbounds nuw %class.b3AlignedObjectArray.30, ptr %5, i32 0, i32 4
  %7 = load ptr, ptr %6, align 8, !tbaa !158
  %8 = load i32, ptr %4, align 4, !tbaa !85
  %9 = sext i32 %8 to i64
  %10 = getelementptr inbounds %struct.b3RigidBodyData, ptr %7, i64 %9
  ret ptr %10
}

; Function Attrs: inlinehint mustprogress uwtable
define linkonce_odr dso_local { <2 x float>, <2 x float> } @_Z13b3MakeVector3fff(float noundef %0, float noundef %1, float noundef %2) #3 comdat {
  %4 = alloca %class.b3Vector3, align 16
  %5 = alloca float, align 4
  %6 = alloca float, align 4
  %7 = alloca float, align 4
  store float %0, ptr %5, align 4, !tbaa !309
  store float %1, ptr %6, align 4, !tbaa !309
  store float %2, ptr %7, align 4, !tbaa !309
  call void @_ZN9b3Vector38setValueERKfS1_S1_(ptr noundef nonnull align 16 dereferenceable(16) %4, ptr noundef nonnull align 4 dereferenceable(4) %5, ptr noundef nonnull align 4 dereferenceable(4) %6, ptr noundef nonnull align 4 dereferenceable(4) %7)
  %8 = getelementptr inbounds nuw %class.b3Vector3, ptr %4, i32 0, i32 0
  %9 = getelementptr inbounds nuw %union.anon, ptr %8, i32 0, i32 0
  %10 = load { <2 x float>, <2 x float> }, ptr %9, align 16
  ret { <2 x float>, <2 x float> } %10
}

; Function Attrs: inlinehint mustprogress nounwind uwtable
define linkonce_odr dso_local noundef i32 @_ZNK20b3AlignedObjectArrayI15b3RigidBodyDataE4sizeEv(ptr noundef nonnull align 8 dereferenceable(25) %0) #9 comdat align 2 {
  %2 = alloca ptr, align 8
  store ptr %0, ptr %2, align 8, !tbaa !154
  %3 = load ptr, ptr %2, align 8
  %4 = getelementptr inbounds nuw %class.b3AlignedObjectArray.30, ptr %3, i32 0, i32 1
  %5 = load i32, ptr %4, align 4, !tbaa !162
  ret i32 %5
}

; Function Attrs: mustprogress uwtable
define dso_local void @_ZN16b3GpuNarrowPhase20setObjectVelocityCpuEPfS0_i(ptr noundef nonnull align 8 dereferenceable(56) %0, ptr noundef %1, ptr noundef %2, i32 noundef %3) #11 align 2 {
  %5 = alloca ptr, align 8
  %6 = alloca ptr, align 8
  %7 = alloca ptr, align 8
  %8 = alloca i32, align 4
  %9 = alloca %class.b3Vector3, align 16
  %10 = alloca %class.b3Vector3, align 16
  store ptr %0, ptr %5, align 8, !tbaa !4
  store ptr %1, ptr %6, align 8, !tbaa !397
  store ptr %2, ptr %7, align 8, !tbaa !397
  store i32 %3, ptr %8, align 4, !tbaa !85
  %11 = load ptr, ptr %5, align 8
  %12 = load i32, ptr %8, align 4, !tbaa !85
  %13 = icmp sge i32 %12, 0
  br i1 %13, label %14, label %69

14:                                               ; preds = %4
  %15 = load i32, ptr %8, align 4, !tbaa !85
  %16 = getelementptr inbounds nuw %class.b3GpuNarrowPhase, ptr %11, i32 0, i32 1
  %17 = load ptr, ptr %16, align 8, !tbaa !19
  %18 = getelementptr inbounds nuw %struct.b3GpuNarrowPhaseInternalData, ptr %17, i32 0, i32 23
  %19 = load ptr, ptr %18, align 8, !tbaa !91
  %20 = call noundef i32 @_ZNK20b3AlignedObjectArrayI15b3RigidBodyDataE4sizeEv(ptr noundef nonnull align 8 dereferenceable(25) %19)
  %21 = icmp slt i32 %15, %20
  br i1 %21, label %22, label %69

22:                                               ; preds = %14
  call void @llvm.lifetime.start.p0(i64 16, ptr %9) #16
  %23 = load ptr, ptr %6, align 8, !tbaa !397
  %24 = getelementptr inbounds float, ptr %23, i64 0
  %25 = load float, ptr %24, align 4, !tbaa !309
  %26 = load ptr, ptr %6, align 8, !tbaa !397
  %27 = getelementptr inbounds float, ptr %26, i64 1
  %28 = load float, ptr %27, align 4, !tbaa !309
  %29 = load ptr, ptr %6, align 8, !tbaa !397
  %30 = getelementptr inbounds float, ptr %29, i64 2
  %31 = load float, ptr %30, align 4, !tbaa !309
  %32 = call { <2 x float>, <2 x float> } @_Z13b3MakeVector3fff(float noundef %25, float noundef %28, float noundef %31)
  %33 = getelementptr inbounds nuw %class.b3Vector3, ptr %9, i32 0, i32 0
  %34 = getelementptr inbounds nuw %union.anon, ptr %33, i32 0, i32 0
  %35 = getelementptr inbounds nuw { <2 x float>, <2 x float> }, ptr %34, i32 0, i32 0
  %36 = extractvalue { <2 x float>, <2 x float> } %32, 0
  store <2 x float> %36, ptr %35, align 16
  %37 = getelementptr inbounds nuw { <2 x float>, <2 x float> }, ptr %34, i32 0, i32 1
  %38 = extractvalue { <2 x float>, <2 x float> } %32, 1
  store <2 x float> %38, ptr %37, align 8
  %39 = getelementptr inbounds nuw %class.b3GpuNarrowPhase, ptr %11, i32 0, i32 1
  %40 = load ptr, ptr %39, align 8, !tbaa !19
  %41 = getelementptr inbounds nuw %struct.b3GpuNarrowPhaseInternalData, ptr %40, i32 0, i32 23
  %42 = load ptr, ptr %41, align 8, !tbaa !91
  %43 = load i32, ptr %8, align 4, !tbaa !85
  %44 = call noundef nonnull align 16 dereferenceable(80) ptr @_ZN20b3AlignedObjectArrayI15b3RigidBodyDataE2atEi(ptr noundef nonnull align 8 dereferenceable(25) %42, i32 noundef %43)
  %45 = getelementptr inbounds nuw %struct.b3RigidBodyData, ptr %44, i32 0, i32 2
  call void @llvm.memcpy.p0.p0.i64(ptr align 16 %45, ptr align 16 %9, i64 16, i1 false), !tbaa.struct !364
  call void @llvm.lifetime.end.p0(i64 16, ptr %9) #16
  call void @llvm.lifetime.start.p0(i64 16, ptr %10) #16
  %46 = load ptr, ptr %7, align 8, !tbaa !397
  %47 = getelementptr inbounds float, ptr %46, i64 0
  %48 = load float, ptr %47, align 4, !tbaa !309
  %49 = load ptr, ptr %7, align 8, !tbaa !397
  %50 = getelementptr inbounds float, ptr %49, i64 1
  %51 = load float, ptr %50, align 4, !tbaa !309
  %52 = load ptr, ptr %7, align 8, !tbaa !397
  %53 = getelementptr inbounds float, ptr %52, i64 2
  %54 = load float, ptr %53, align 4, !tbaa !309
  %55 = call { <2 x float>, <2 x float> } @_Z13b3MakeVector3fff(float noundef %48, float noundef %51, float noundef %54)
  %56 = getelementptr inbounds nuw %class.b3Vector3, ptr %10, i32 0, i32 0
  %57 = getelementptr inbounds nuw %union.anon, ptr %56, i32 0, i32 0
  %58 = getelementptr inbounds nuw { <2 x float>, <2 x float> }, ptr %57, i32 0, i32 0
  %59 = extractvalue { <2 x float>, <2 x float> } %55, 0
  store <2 x float> %59, ptr %58, align 16
  %60 = getelementptr inbounds nuw { <2 x float>, <2 x float> }, ptr %57, i32 0, i32 1
  %61 = extractvalue { <2 x float>, <2 x float> } %55, 1
  store <2 x float> %61, ptr %60, align 8
  %62 = getelementptr inbounds nuw %class.b3GpuNarrowPhase, ptr %11, i32 0, i32 1
  %63 = load ptr, ptr %62, align 8, !tbaa !19
  %64 = getelementptr inbounds nuw %struct.b3GpuNarrowPhaseInternalData, ptr %63, i32 0, i32 23
  %65 = load ptr, ptr %64, align 8, !tbaa !91
  %66 = load i32, ptr %8, align 4, !tbaa !85
  %67 = call noundef nonnull align 16 dereferenceable(80) ptr @_ZN20b3AlignedObjectArrayI15b3RigidBodyDataE2atEi(ptr noundef nonnull align 8 dereferenceable(25) %65, i32 noundef %66)
  %68 = getelementptr inbounds nuw %struct.b3RigidBodyData, ptr %67, i32 0, i32 3
  call void @llvm.memcpy.p0.p0.i64(ptr align 16 %68, ptr align 16 %10, i64 16, i1 false), !tbaa.struct !364
  call void @llvm.lifetime.end.p0(i64 16, ptr %10) #16
  br label %72

69:                                               ; preds = %14, %4
  br label %70

70:                                               ; preds = %69
  call void (ptr, ...) @b3OutputWarningMessageVarArgsInternal(ptr noundef @.str.6, ptr noundef @.str.1, i32 noundef 991)
  call void (ptr, ...) @b3OutputWarningMessageVarArgsInternal(ptr noundef @.str.7)
  br label %71

71:                                               ; preds = %70
  br label %72

72:                                               ; preds = %71, %22
  ret void
}