; Function Attrs: mustprogress uwtable
define dso_local void @_ZN16b3GpuNarrowPhase20setObjectVelocityCpuEPfS0_i(ptr noundef nonnull readonly align 8 captures(none) dereferenceable(56) %0, ptr noundef readonly captures(none) %1, ptr noundef readonly captures(none) %2, i32 noundef %3) local_unnamed_addr #12 align 2 {
  %5 = icmp sgt i32 %3, -1
  br i1 %5, label %6, label %37

6:                                                ; preds = %4
  %7 = getelementptr inbounds nuw i8, ptr %0, i64 8
  %8 = load ptr, ptr %7, align 8, !tbaa !7
  %9 = getelementptr inbounds nuw i8, ptr %8, i64 336
  %10 = load ptr, ptr %9, align 8, !tbaa !102
  %11 = getelementptr inbounds nuw i8, ptr %10, i64 4
  %12 = load i32, ptr %11, align 4, !tbaa !100
  %13 = icmp slt i32 %3, %12
  br i1 %13, label %14, label %37

14:                                               ; preds = %6
  %15 = load float, ptr %1, align 4, !tbaa !152
  %16 = getelementptr inbounds nuw i8, ptr %1, i64 4
  %17 = load float, ptr %16, align 4, !tbaa !152
  %18 = getelementptr inbounds nuw i8, ptr %1, i64 8
  %19 = load float, ptr %18, align 4, !tbaa !152
  %.sroa.0.0.vec.insert.i = insertelement <2 x float> poison, float %15, i64 0
  %.sroa.0.4.vec.insert.i = insertelement <2 x float> %.sroa.0.0.vec.insert.i, float %17, i64 1
  %.sroa.3.12.vec.insert.i = insertelement <2 x float> <float poison, float 0.000000e+00>, float %19, i64 0
  %20 = getelementptr inbounds nuw i8, ptr %10, i64 16
  %21 = load ptr, ptr %20, align 8, !tbaa !99
  %22 = zext nneg i32 %3 to i64
  %23 = getelementptr inbounds nuw %struct.b3RigidBodyData, ptr %21, i64 %22
  %24 = getelementptr inbounds nuw i8, ptr %23, i64 32
  store <2 x float> %.sroa.0.4.vec.insert.i, ptr %24, align 16
  %.sroa.42.0..sroa_idx = getelementptr inbounds nuw i8, ptr %23, i64 40
  store <2 x float> %.sroa.3.12.vec.insert.i, ptr %.sroa.42.0..sroa_idx, align 8, !tbaa !124
  %25 = load float, ptr %2, align 4, !tbaa !152
  %26 = getelementptr inbounds nuw i8, ptr %2, i64 4
  %27 = load float, ptr %26, align 4, !tbaa !152
  %28 = getelementptr inbounds nuw i8, ptr %2, i64 8
  %29 = load float, ptr %28, align 4, !tbaa !152
  %.sroa.0.0.vec.insert.i12 = insertelement <2 x float> poison, float %25, i64 0
  %.sroa.0.4.vec.insert.i13 = insertelement <2 x float> %.sroa.0.0.vec.insert.i12, float %27, i64 1
  %.sroa.3.12.vec.insert.i14 = insertelement <2 x float> <float poison, float 0.000000e+00>, float %29, i64 0
  %30 = load ptr, ptr %7, align 8, !tbaa !7
  %31 = getelementptr inbounds nuw i8, ptr %30, i64 336
  %32 = load ptr, ptr %31, align 8, !tbaa !102
  %33 = getelementptr inbounds nuw i8, ptr %32, i64 16
  %34 = load ptr, ptr %33, align 8, !tbaa !99
  %35 = getelementptr inbounds nuw %struct.b3RigidBodyData, ptr %34, i64 %22
  %36 = getelementptr inbounds nuw i8, ptr %35, i64 48
  store <2 x float> %.sroa.0.4.vec.insert.i13, ptr %36, align 16
  %.sroa.4.0..sroa_idx = getelementptr inbounds nuw i8, ptr %35, i64 56
  store <2 x float> %.sroa.3.12.vec.insert.i14, ptr %.sroa.4.0..sroa_idx, align 8, !tbaa !124
  br label %38

37:                                               ; preds = %4, %6
  tail call void (ptr, ...) @b3OutputWarningMessageVarArgsInternal(ptr noundef nonnull @.str.6, ptr noundef nonnull @.str.1, i32 noundef 991)
  tail call void (ptr, ...) @b3OutputWarningMessageVarArgsInternal(ptr noundef nonnull @.str.7)
  br label %38

38:                                               ; preds = %37, %14
  ret void
}